; ModuleID = '53/475.c'
source_filename = "53/475.c"
target datalayout = "e-m:e-p270:32:32-p271:32:32-p272:64:64-i64:64-f80:128-n8:16:32:64-S128"
target triple = "x86_64-pc-linux-gnu"

@.str = private unnamed_addr constant [3 x i8] c"%d\00", align 1
@.str.1 = private unnamed_addr constant [2 x i8] c",\00", align 1

; Function Attrs: noinline nounwind uwtable
define dso_local void @main() #0 {
  %1 = alloca [100 x i32], align 16
  %2 = alloca i32, align 4
  %3 = alloca i32, align 4
  %4 = alloca i32, align 4
  %5 = alloca i32, align 4
  %6 = alloca i32, align 4
  %7 = alloca i32, align 4
  %8 = alloca i32, align 4
  %9 = alloca [100 x i32], align 16
  %10 = call i32 (i8*, ...) @__isoc99_scanf(i8* getelementptr inbounds ([3 x i8], [3 x i8]* @.str, i64 0, i64 0), i32* %7)
  store i32 1, i32* %2, align 4
  br label %11

11:                                               ; preds = %20, %0
  %12 = load i32, i32* %2, align 4
  %13 = load i32, i32* %7, align 4
  %14 = icmp sle i32 %12, %13
  br i1 %14, label %15, label %23

15:                                               ; preds = %11
  %16 = load i32, i32* %2, align 4
  %17 = sext i32 %16 to i64
  %18 = getelementptr inbounds [100 x i32], [100 x i32]* %1, i64 0, i64 %17
  %19 = call i32 (i8*, ...) @__isoc99_scanf(i8* getelementptr inbounds ([3 x i8], [3 x i8]* @.str, i64 0, i64 0), i32* %18)
  br label %20

20:                                               ; preds = %15
  %21 = load i32, i32* %2, align 4
  %22 = add nsw i32 %21, 1
  store i32 %22, i32* %2, align 4
  br label %11

23:                                               ; preds = %11
  %24 = getelementptr inbounds [100 x i32], [100 x i32]* %1, i64 0, i64 1
  %25 = load i32, i32* %24, align 4
  %26 = getelementptr inbounds [100 x i32], [100 x i32]* %9, i64 0, i64 1
  store i32 %25, i32* %26, align 4
  store i32 1, i32* %3, align 4
  store i32 1, i32* %6, align 4
  store i32 1, i32* %2, align 4
  br label %27

27:                                               ; preds = %67, %23
  %28 = load i32, i32* %2, align 4
  %29 = load i32, i32* %7, align 4
  %30 = icmp sle i32 %28, %29
  br i1 %30, label %31, label %70

31:                                               ; preds = %27
  store i32 1, i32* %6, align 4
  br label %32

32:                                               ; preds = %50, %31
  %33 = load i32, i32* %6, align 4
  %34 = load i32, i32* %3, align 4
  %35 = icmp sle i32 %33, %34
  br i1 %35, label %36, label %51

36:                                               ; preds = %32
  %37 = load i32, i32* %6, align 4
  %38 = sext i32 %37 to i64
  %39 = getelementptr inbounds [100 x i32], [100 x i32]* %9, i64 0, i64 %38
  %40 = load i32, i32* %39, align 4
  %41 = load i32, i32* %2, align 4
  %42 = sext i32 %41 to i64
  %43 = getelementptr inbounds [100 x i32], [100 x i32]* %1, i64 0, i64 %42
  %44 = load i32, i32* %43, align 4
  %45 = icmp eq i32 %40, %44
  br i1 %45, label %46, label %47

46:                                               ; preds = %36
  br label %51

47:                                               ; preds = %36
  %48 = load i32, i32* %6, align 4
  %49 = add nsw i32 %48, 1
  store i32 %49, i32* %6, align 4
  br label %50

50:                                               ; preds = %47
  br label %32

51:                                               ; preds = %46, %32
  %52 = load i32, i32* %6, align 4
  %53 = load i32, i32* %3, align 4
  %54 = add nsw i32 %53, 1
  %55 = icmp eq i32 %52, %54
  br i1 %55, label %56, label %66

56:                                               ; preds = %51
  %57 = load i32, i32* %3, align 4
  %58 = add nsw i32 %57, 1
  store i32 %58, i32* %3, align 4
  %59 = load i32, i32* %2, align 4
  %60 = sext i32 %59 to i64
  %61 = getelementptr inbounds [100 x i32], [100 x i32]* %1, i64 0, i64 %60
  %62 = load i32, i32* %61, align 4
  %63 = load i32, i32* %3, align 4
  %64 = sext i32 %63 to i64
  %65 = getelementptr inbounds [100 x i32], [100 x i32]* %9, i64 0, i64 %64
  store i32 %62, i32* %65, align 4
  br label %66

66:                                               ; preds = %56, %51
  br label %67

67:                                               ; preds = %66
  %68 = load i32, i32* %2, align 4
  %69 = add nsw i32 %68, 1
  store i32 %69, i32* %2, align 4
  br label %27

70:                                               ; preds = %27
  store i32 1, i32* %2, align 4
  br label %71

71:                                               ; preds = %87, %70
  %72 = load i32, i32* %2, align 4
  %73 = load i32, i32* %3, align 4
  %74 = icmp sle i32 %72, %73
  br i1 %74, label %75, label %90

75:                                               ; preds = %71
  %76 = load i32, i32* %2, align 4
  %77 = sext i32 %76 to i64
  %78 = getelementptr inbounds [100 x i32], [100 x i32]* %9, i64 0, i64 %77
  %79 = load i32, i32* %78, align 4
  %80 = call i32 (i8*, ...) @printf(i8* getelementptr inbounds ([3 x i8], [3 x i8]* @.str, i64 0, i64 0), i32 %79)
  %81 = load i32, i32* %2, align 4
  %82 = load i32, i32* %3, align 4
  %83 = icmp ne i32 %81, %82
  br i1 %83, label %84, label %86

84:                                               ; preds = %75
  %85 = call i32 (i8*, ...) @printf(i8* getelementptr inbounds ([2 x i8], [2 x i8]* @.str.1, i64 0, i64 0))
  br label %86

86:                                               ; preds = %84, %75
  br label %87

87:                                               ; preds = %86
  %88 = load i32, i32* %2, align 4
  %89 = add nsw i32 %88, 1
  store i32 %89, i32* %2, align 4
  br label %71

90:                                               ; preds = %71
  ret void
}

declare dso_local i32 @__isoc99_scanf(i8*, ...) #1

declare dso_local i32 @printf(i8*, ...) #1


!llvm.module.flags = !{!0}
!llvm.ident = !{!1}

!0 = !{i32 1, !"wchar_size", i32 4}
!1 = !{!"clang version 10.0.0-4ubuntu1 "}
